; Function Attrs: mustprogress nofree norecurse nosync nounwind willreturn memory(readwrite, inaccessiblemem: none) uwtable
define hidden void @_ZN14ArchiveBuilder16OtherROAllocMarkD2Ev(ptr nocapture noundef nonnull readonly align 8 dereferenceable(8) %0) unnamed_addr #0 align 2 {
  %2 = load ptr, ptr @_ZN14ArchiveBuilder8_currentE, align 8
  %3 = getelementptr inbounds i8, ptr %2, i64 352
  %4 = load ptr, ptr %3, align 8
  %5 = load ptr, ptr %0, align 8
  %6 = ptrtoint ptr %4 to i64
  %7 = ptrtoint ptr %5 to i64
  %8 = sub i64 %6, %7
  %9 = trunc i64 %8 to i32
  %10 = getelementptr inbounds i8, ptr %2, i64 924
  %11 = load i32, ptr %10, align 4
  %12 = add nsw i32 %11, %9
  store i32 %12, ptr %10, align 4
  ret void
}